; Function Attrs: mustprogress nofree norecurse nosync nounwind willreturn memory(read, inaccessiblemem: none) uwtable
define internal range(i32 0, 52) i32 @tiff_probe(ptr noundef readonly captures(none) %0) #8 {
  %2 = getelementptr inbounds nuw i8, ptr %0, i64 8
  %3 = load ptr, ptr %2, align 8, !tbaa !90
  %4 = load i32, ptr %3, align 1, !tbaa !68
  %switch.selectcmp.case1 = icmp eq i32 %4, 2771273
  %switch.selectcmp.case2 = icmp eq i32 %4, 704662861
  %switch.selectcmp = or i1 %switch.selectcmp.case1, %switch.selectcmp.case2
  %5 = select i1 %switch.selectcmp, i32 51, i32 0
  ret i32 %5
}